target datalayout = "e-m:e-p270:32:32-p271:32:32-p272:64:64-i64:64-i128:128-f80:128-n8:16:32:64-S128"
target triple = "x86_64-pc-linux-gnu"

@sharkd_init.optstring = internal constant [9 x i8] c"+a:hmvC:\00", align 1
@stderr = external global ptr, align 8
@.str.5 = private unnamed_addr constant [2 x i8] c"-\00", align 1
@mode = internal global i32 0, align 4
@_server_fd = internal global i32 -1, align 4
@ws_optind = external global i32, align 4
@ws_optarg = external global ptr, align 8
@.str.6 = private unnamed_addr constant [43 x i8] c"Configuration Profile \22%s\22 does not exist\0A\00", align 1
@.str.7 = private unnamed_addr constant [25 x i8] c"Sharkd listening on: %s\0A\00", align 1
@.str.8 = private unnamed_addr constant [28 x i8] c"Daemon variant of Wireshark\00", align 1
@stdout = external global ptr, align 8
@ws_optopt = external global i32, align 4
@.str.9 = private unnamed_addr constant [33 x i8] c"This option isn't supported: %s\0A\00", align 1
@.str.10 = private unnamed_addr constant [48 x i8] c"Use sharkd -h for details of supported options\0A\00", align 1
@.str.11 = private unnamed_addr constant [43 x i8] c"cannot go to background fork() failed: %s\0A\00", align 1

; Function Attrs: null_pointer_is_valid sspstrong uwtable
define hidden i32 @sharkd_init(i32 noundef %0, ptr noundef %1) #0 {
  %3 = alloca i32, align 4
  %4 = alloca i32, align 4
  %5 = alloca ptr, align 8
  %6 = alloca i32, align 4
  %7 = alloca i32, align 4
  %8 = alloca i32, align 4
  %9 = alloca i8, align 1
  %10 = alloca i32, align 4
  store i32 %0, ptr %4, align 4
  store ptr %1, ptr %5, align 8
  call void @llvm.lifetime.start.p0(i64 4, ptr %6) #9
  call void @llvm.lifetime.start.p0(i64 4, ptr %7) #9
  call void @llvm.lifetime.start.p0(i64 4, ptr %8) #9
  call void @llvm.lifetime.start.p0(i64 1, ptr %9) #9
  store i8 0, ptr %9, align 1
  %11 = load i32, ptr %4, align 4
  %12 = icmp slt i32 %11, 2
  br i1 %12, label %13, label %15

13:                                               ; preds = %2
  %14 = load ptr, ptr @stderr, align 8
  call void @print_usage(ptr noundef %14)
  store i32 -1, ptr %3, align 4
  store i32 1, ptr %10, align 4
  br label %142

15:                                               ; preds = %2
  %16 = load ptr, ptr %5, align 8
  %17 = getelementptr ptr, ptr %16, i64 1
  %18 = load ptr, ptr %17, align 8
  %19 = call i32 @strcmp(ptr noundef %18, ptr noundef @.str.5) #10
  %20 = icmp ne i32 %19, 0
  br i1 %20, label %21, label %37

21:                                               ; preds = %15
  %22 = load ptr, ptr %5, align 8
  %23 = getelementptr ptr, ptr %22, i64 1
  %24 = load ptr, ptr %23, align 8
  %25 = getelementptr i8, ptr %24, i64 0
  %26 = load i8, ptr %25, align 1
  %27 = sext i8 %26 to i32
  %28 = icmp eq i32 %27, 116
  br i1 %28, label %37, label %29

29:                                               ; preds = %21
  %30 = load ptr, ptr %5, align 8
  %31 = getelementptr ptr, ptr %30, i64 1
  %32 = load ptr, ptr %31, align 8
  %33 = getelementptr i8, ptr %32, i64 0
  %34 = load i8, ptr %33, align 1
  %35 = sext i8 %34 to i32
  %36 = icmp eq i32 %35, 117
  br i1 %36, label %37, label %56

37:                                               ; preds = %29, %21, %15
  store i32 1, ptr @mode, align 4
  %38 = call ptr @signal(i32 noundef 17, ptr noundef inttoptr (i64 1 to ptr)) #9
  %39 = load ptr, ptr %5, align 8
  %40 = getelementptr ptr, ptr %39, i64 1
  %41 = load ptr, ptr %40, align 8
  %42 = call i32 @strcmp(ptr noundef %41, ptr noundef @.str.5) #10
  %43 = icmp ne i32 %42, 0
  br i1 %43, label %45, label %44

44:                                               ; preds = %37
  store i32 1, ptr @mode, align 4
  br label %55

45:                                               ; preds = %37
  %46 = load ptr, ptr %5, align 8
  %47 = getelementptr ptr, ptr %46, i64 1
  %48 = load ptr, ptr %47, align 8
  %49 = call i32 @socket_init(ptr noundef %48)
  store i32 %49, ptr %8, align 4
  %50 = load i32, ptr %8, align 4
  %51 = icmp eq i32 %50, -1
  br i1 %51, label %52, label %53

52:                                               ; preds = %45
  store i32 -1, ptr %3, align 4
  store i32 1, ptr %10, align 4
  br label %142

53:                                               ; preds = %45
  %54 = load i32, ptr %8, align 4
  store i32 %54, ptr @_server_fd, align 4
  store i32 2, ptr @mode, align 4
  br label %55

55:                                               ; preds = %53, %44
  br label %57

56:                                               ; preds = %29
  store i32 3, ptr @mode, align 4
  br label %57

57:                                               ; preds = %56, %55
  %58 = load i32, ptr @mode, align 4
  %59 = icmp sge i32 %58, 3
  br i1 %59, label %60, label %117

60:                                               ; preds = %57
  br label %61

61:                                               ; preds = %113, %60
  %62 = load i32, ptr @ws_optind, align 4
  %63 = load i32, ptr %4, align 4
  %64 = sub i32 %63, 1
  %65 = icmp sgt i32 %62, %64
  br i1 %65, label %66, label %67

66:                                               ; preds = %61
  br label %116

67:                                               ; preds = %61
  %68 = load i32, ptr %4, align 4
  %69 = load ptr, ptr %5, align 8
  %70 = call i32 @ws_getopt_long(i32 noundef %68, ptr noundef %69, ptr noundef @sharkd_init.optstring, ptr noundef @sharkd_init.long_options, ptr noundef null)
  store i32 %70, ptr %6, align 4
  %71 = load i32, ptr %6, align 4
  switch i32 %71, label %98 [
    i32 67, label %72
    i32 97, label %82
    i32 104, label %93
    i32 109, label %95
    i32 118, label %96
    i32 4000, label %97
  ]

72:                                               ; preds = %67
  %73 = load ptr, ptr @ws_optarg, align 8
  %74 = call zeroext i1 @profile_exists(ptr noundef %73, i1 noundef zeroext false)
  br i1 %74, label %75, label %77

75:                                               ; preds = %72
  %76 = load ptr, ptr @ws_optarg, align 8
  call void @set_profile_name(ptr noundef %76)
  br label %81

77:                                               ; preds = %72
  %78 = load ptr, ptr @stderr, align 8
  %79 = load ptr, ptr @ws_optarg, align 8
  %80 = call i32 (ptr, i32, ptr, ...) @__fprintf_chk(ptr noundef %78, i32 noundef 2, ptr noundef @.str.6, ptr noundef %79)
  store i32 -1, ptr %3, align 4
  store i32 1, ptr %10, align 4
  br label %142

81:                                               ; preds = %75
  br label %112

82:                                               ; preds = %67
  %83 = load ptr, ptr @ws_optarg, align 8
  %84 = call i32 @socket_init(ptr noundef %83)
  store i32 %84, ptr %8, align 4
  %85 = load i32, ptr %8, align 4
  %86 = icmp eq i32 %85, -1
  br i1 %86, label %87, label %88

87:                                               ; preds = %82
  store i32 -1, ptr %3, align 4
  store i32 1, ptr %10, align 4
  br label %142

88:                                               ; preds = %82
  %89 = load i32, ptr %8, align 4
  store i32 %89, ptr @_server_fd, align 4
  %90 = load ptr, ptr @stderr, align 8
  %91 = load ptr, ptr @ws_optarg, align 8
  %92 = call i32 (ptr, i32, ptr, ...) @__fprintf_chk(ptr noundef %90, i32 noundef 2, ptr noundef @.str.7, ptr noundef %91)
  store i32 4, ptr @mode, align 4
  br label %112

93:                                               ; preds = %67
  call void @show_help_header(ptr noundef @.str.8)
  %94 = load ptr, ptr @stdout, align 8
  call void @print_usage(ptr noundef %94)
  call void @exit(i32 noundef 0) #11
  unreachable

95:                                               ; preds = %67
  store i32 3, ptr @mode, align 4
  br label %112

96:                                               ; preds = %67
  call void @show_version()
  call void @exit(i32 noundef 0) #11
  unreachable

97:                                               ; preds = %67
  store i8 1, ptr %9, align 1
  br label %112

98:                                               ; preds = %67
  %99 = load i32, ptr @ws_optopt, align 4
  %100 = icmp ne i32 %99, 0
  br i1 %100, label %109, label %101

101:                                              ; preds = %98
  %102 = load ptr, ptr @stderr, align 8
  %103 = load ptr, ptr %5, align 8
  %104 = load i32, ptr @ws_optind, align 4
  %105 = sext i32 %104 to i64
  %106 = getelementptr ptr, ptr %103, i64 %105
  %107 = load ptr, ptr %106, align 8
  %108 = call i32 (ptr, i32, ptr, ...) @__fprintf_chk(ptr noundef %102, i32 noundef 2, ptr noundef @.str.9, ptr noundef %107)
  br label %109

109:                                              ; preds = %101, %98
  %110 = load ptr, ptr @stderr, align 8
  %111 = call i32 (ptr, i32, ptr, ...) @__fprintf_chk(ptr noundef %110, i32 noundef 2, ptr noundef @.str.10)
  call void @exit(i32 noundef 0) #11
  unreachable

112:                                              ; preds = %97, %95, %88, %81
  br label %113

113:                                              ; preds = %112
  %114 = load i32, ptr %6, align 4
  %115 = icmp ne i32 %114, -1
  br i1 %115, label %61, label %116, !llvm.loop !7

116:                                              ; preds = %113, %66
  br label %117

117:                                              ; preds = %116, %57
  %118 = load i8, ptr %9, align 1, !range !9, !noundef !10
  %119 = trunc i8 %118 to i1
  br i1 %119, label %141, label %120

120:                                              ; preds = %117
  %121 = load i32, ptr @mode, align 4
  %122 = icmp eq i32 %121, 2
  br i1 %122, label %126, label %123

123:                                              ; preds = %120
  %124 = load i32, ptr @mode, align 4
  %125 = icmp eq i32 %124, 4
  br i1 %125, label %126, label %141

126:                                              ; preds = %123, %120
  %127 = call i32 @fork() #9
  store i32 %127, ptr %7, align 4
  %128 = load i32, ptr %7, align 4
  %129 = icmp eq i32 %128, -1
  br i1 %129, label %130, label %136

130:                                              ; preds = %126
  %131 = load ptr, ptr @stderr, align 8
  %132 = call ptr @__errno_location() #12
  %133 = load i32, ptr %132, align 4
  %134 = call ptr @g_strerror(i32 noundef %133) #12
  %135 = call i32 (ptr, i32, ptr, ...) @__fprintf_chk(ptr noundef %131, i32 noundef 2, ptr noundef @.str.11, ptr noundef %134)
  br label %136

136:                                              ; preds = %130, %126
  %137 = load i32, ptr %7, align 4
  %138 = icmp ne i32 %137, 0
  br i1 %138, label %139, label %140

139:                                              ; preds = %136
  call void @exit(i32 noundef 0) #11
  unreachable

140:                                              ; preds = %136
  br label %141

141:                                              ; preds = %140, %123, %117
  store i32 0, ptr %3, align 4
  store i32 1, ptr %10, align 4
  br label %142

142:                                              ; preds = %141, %87, %77, %52, %13
  call void @llvm.lifetime.end.p0(i64 1, ptr %9) #9
  call void @llvm.lifetime.end.p0(i64 4, ptr %8) #9
  call void @llvm.lifetime.end.p0(i64 4, ptr %7) #9
  call void @llvm.lifetime.end.p0(i64 4, ptr %6) #9
  %143 = load i32, ptr %3, align 4
  ret i32 %143
}