; Function Attrs: null_pointer_is_valid sspstrong uwtable
define hidden range(i32 -1, 1) i32 @sharkd_init(i32 noundef %0, ptr noundef %1) local_unnamed_addr #0 {
  %3 = icmp slt i32 %0, 2
  br i1 %3, label %4, label %sub_0

4:                                                ; preds = %2
  %5 = load ptr, ptr @stderr, align 8
  tail call fastcc void @print_usage(ptr noundef %5)
  br label %.loopexit

sub_0:                                            ; preds = %2
  %6 = getelementptr i8, ptr %1, i64 8
  %7 = load ptr, ptr %6, align 8
  %8 = load i8, ptr %7, align 1
  %.not44 = icmp eq i8 %8, 45
  br i1 %.not44, label %.tail, label %12

.tail:                                            ; preds = %sub_0
  %9 = getelementptr inbounds nuw i8, ptr %7, i64 1
  %10 = load i8, ptr %9, align 1
  %11 = icmp eq i8 %10, 0
  br i1 %11, label %sub_034, label %.thread

12:                                               ; preds = %sub_0
  %13 = and i8 %8, -2
  %switch = icmp eq i8 %13, 116
  br i1 %switch, label %sub_034, label %.thread

sub_034:                                          ; preds = %12, %.tail
  store i32 1, ptr @mode, align 4
  %14 = tail call ptr @signal(i32 noundef 17, ptr noundef nonnull inttoptr (i64 1 to ptr)) #10
  %15 = load ptr, ptr %6, align 8
  %16 = load i8, ptr %15, align 1
  %.not45 = icmp eq i8 %16, 45
  br i1 %.not45, label %.tail33, label %.tail33.thread

.tail33:                                          ; preds = %sub_034
  %17 = getelementptr inbounds nuw i8, ptr %15, i64 1
  %18 = load i8, ptr %17, align 1
  %19 = icmp eq i8 %18, 0
  br i1 %19, label %.thread30.thread, label %.tail33.thread

.thread30.thread:                                 ; preds = %.tail33
  store i32 1, ptr @mode, align 4
  br label %.loopexit

.tail33.thread:                                   ; preds = %sub_034, %.tail33
  %20 = tail call fastcc i32 @socket_init(ptr noundef %15)
  %21 = icmp eq i32 %20, -1
  br i1 %21, label %.loopexit, label %.thread30.thread32

.thread30.thread32:                               ; preds = %.tail33.thread
  store i32 %20, ptr @_server_fd, align 4
  store i32 2, ptr @mode, align 4
  br label %60

.thread:                                          ; preds = %.tail, %12
  store i32 3, ptr @mode, align 4
  %22 = load i32, ptr @ws_optind, align 4
  %.not2642 = icmp slt i32 %22, %0
  br i1 %.not2642, label %.lr.ph.outer, label %.loopexit

.lr.ph.outer:                                     ; preds = %.thread, %.thread50
  %.143.ph = phi i1 [ true, %.thread50 ], [ false, %.thread ]
  br label %.lr.ph

.lr.ph:                                           ; preds = %.lr.ph.outer, %57
  %23 = tail call i32 @ws_getopt_long(i32 noundef %0, ptr noundef %1, ptr noundef nonnull @sharkd_init.optstring, ptr noundef nonnull @sharkd_init.long_options, ptr noundef null)
  switch i32 %23, label %45 [
    i32 67, label %24
    i32 97, label %33
    i32 104, label %41
    i32 109, label %43
    i32 118, label %44
    i32 4000, label %.thread50
  ]

24:                                               ; preds = %.lr.ph
  %25 = load ptr, ptr @ws_optarg, align 8
  %26 = tail call zeroext i1 @profile_exists(ptr noundef %25, i1 noundef zeroext false)
  br i1 %26, label %27, label %29

27:                                               ; preds = %24
  %28 = load ptr, ptr @ws_optarg, align 8
  tail call void @set_profile_name(ptr noundef %28)
  br label %57

29:                                               ; preds = %24
  %30 = load ptr, ptr @stderr, align 8
  %31 = load ptr, ptr @ws_optarg, align 8
  %32 = tail call i32 (ptr, i32, ptr, ...) @__fprintf_chk(ptr noundef %30, i32 noundef 2, ptr noundef nonnull @.str.6, ptr noundef %31)
  br label %.loopexit

33:                                               ; preds = %.lr.ph
  %34 = load ptr, ptr @ws_optarg, align 8
  %35 = tail call fastcc i32 @socket_init(ptr noundef %34)
  %36 = icmp eq i32 %35, -1
  br i1 %36, label %.loopexit, label %37

37:                                               ; preds = %33
  store i32 %35, ptr @_server_fd, align 4
  %38 = load ptr, ptr @stderr, align 8
  %39 = load ptr, ptr @ws_optarg, align 8
  %40 = tail call i32 (ptr, i32, ptr, ...) @__fprintf_chk(ptr noundef %38, i32 noundef 2, ptr noundef nonnull @.str.7, ptr noundef %39)
  store i32 4, ptr @mode, align 4
  br label %57

41:                                               ; preds = %.lr.ph
  tail call void @show_help_header(ptr noundef nonnull @.str.8)
  %42 = load ptr, ptr @stdout, align 8
  tail call fastcc void @print_usage(ptr noundef %42)
  tail call void @exit(i32 noundef 0) #11
  unreachable

43:                                               ; preds = %.lr.ph
  store i32 3, ptr @mode, align 4
  br label %57

44:                                               ; preds = %.lr.ph
  tail call void @show_version()
  tail call void @exit(i32 noundef 0) #11
  unreachable

45:                                               ; preds = %.lr.ph
  %46 = load i32, ptr @ws_optopt, align 4
  %.not28 = icmp eq i32 %46, 0
  br i1 %.not28, label %47, label %54

47:                                               ; preds = %45
  %48 = load ptr, ptr @stderr, align 8
  %49 = load i32, ptr @ws_optind, align 4
  %50 = sext i32 %49 to i64
  %51 = getelementptr ptr, ptr %1, i64 %50
  %52 = load ptr, ptr %51, align 8
  %53 = tail call i32 (ptr, i32, ptr, ...) @__fprintf_chk(ptr noundef %48, i32 noundef 2, ptr noundef nonnull @.str.9, ptr noundef %52)
  br label %54

54:                                               ; preds = %47, %45
  %55 = load ptr, ptr @stderr, align 8
  %56 = tail call i32 (ptr, i32, ptr, ...) @__fprintf_chk(ptr noundef %55, i32 noundef 2, ptr noundef nonnull @.str.10)
  tail call void @exit(i32 noundef 0) #11
  unreachable

57:                                               ; preds = %27, %37, %43
  %58 = load i32, ptr @ws_optind, align 4
  %.not26 = icmp slt i32 %58, %0
  br i1 %.not26, label %.lr.ph, label %._crit_edge, !llvm.loop !7

.thread50:                                        ; preds = %.lr.ph
  %59 = load i32, ptr @ws_optind, align 4
  %.not2652 = icmp slt i32 %59, %0
  br i1 %.not2652, label %.lr.ph.outer, label %.loopexit, !llvm.loop !7

._crit_edge:                                      ; preds = %57
  br i1 %.143.ph, label %.loopexit, label %.thread30

.thread30:                                        ; preds = %._crit_edge
  %.pr.pre = load i32, ptr @mode, align 4
  switch i32 %.pr.pre, label %.loopexit [
    i32 4, label %60
    i32 2, label %60
  ]

60:                                               ; preds = %.thread30.thread32, %.thread30, %.thread30
  %61 = tail call i32 @fork() #10
  switch i32 %61, label %68 [
    i32 -1, label %62
    i32 0, label %.loopexit
  ]

62:                                               ; preds = %60
  %63 = load ptr, ptr @stderr, align 8
  %64 = tail call ptr @__errno_location() #12
  %65 = load i32, ptr %64, align 4
  %66 = tail call ptr @g_strerror(i32 noundef %65) #12
  %67 = tail call i32 (ptr, i32, ptr, ...) @__fprintf_chk(ptr noundef %63, i32 noundef 2, ptr noundef nonnull @.str.11, ptr noundef %66)
  br label %68

68:                                               ; preds = %62, %60
  tail call void @exit(i32 noundef 0) #11
  unreachable

.loopexit:                                        ; preds = %.thread50, %33, %.thread, %.thread30.thread, %._crit_edge, %.thread30, %60, %.tail33.thread, %29, %4
  %.020 = phi i32 [ -1, %4 ], [ -1, %29 ], [ -1, %.tail33.thread ], [ %61, %60 ], [ 0, %.thread30 ], [ 0, %._crit_edge ], [ 0, %.thread30.thread ], [ 0, %.thread ], [ -1, %33 ], [ 0, %.thread50 ]
  ret i32 %.020
}